target datalayout = "e-m:e-p270:32:32-p271:32:32-p272:64:64-i64:64-i128:128-f80:128-n8:16:32:64-S128"
target triple = "x86_64-pc-linux-gnu"

%"struct.duckdb_brotli::BrotliDecoderStateStruct" = type { i32, i32, %"struct.duckdb_brotli::BrotliBitReader", ptr, ptr, ptr, %union.anon, i64, i32, i32, i32, i32, i32, i32, [4 x i32], i32, i32, ptr, ptr, ptr, ptr, ptr, ptr, %"struct.duckdb_brotli::HuffmanTreeGroup", %"struct.duckdb_brotli::HuffmanTreeGroup", %"struct.duckdb_brotli::HuffmanTreeGroup", ptr, ptr, i32, i32, [3 x i64], i64, [3 x i64], [6 x i64], i64, i64, i64, ptr, ptr, i64, i64, i64, [65 x i32], i32, i32, i8, ptr, ptr, ptr, i64, i32, i32, i32, i32, i32, i32, i64, ptr, ptr, ptr, ptr, [8 x i32], %union.anon.0 }
%"struct.duckdb_brotli::BrotliBitReader" = type { i64, i64, ptr, ptr, ptr }
%union.anon = type { i64 }
%"struct.duckdb_brotli::HuffmanTreeGroup" = type { ptr, ptr, i16, i16, i16 }
%union.anon.0 = type { %"struct.duckdb_brotli::BrotliMetablockBodyArena" }
%"struct.duckdb_brotli::BrotliMetablockBodyArena" = type { [544 x i8], [544 x i64] }

@__const._ZN13duckdb_brotliL27InverseMoveToFrontTransformEPhmPNS_24BrotliDecoderStateStructE.b0123 = private unnamed_addr constant [4 x i8] c"\00\01\02\03", align 1

; Function Attrs: mustprogress noinline nounwind uwtable
define internal void @_ZN13duckdb_brotliL27InverseMoveToFrontTransformEPhmPNS_24BrotliDecoderStateStructE(ptr noundef %0, i64 noundef %1, ptr noundef %2) #6 {
  %4 = alloca ptr, align 8
  %5 = alloca i64, align 8
  %6 = alloca ptr, align 8
  %7 = alloca i64, align 8
  %8 = alloca i64, align 8
  %9 = alloca ptr, align 8
  %10 = alloca ptr, align 8
  %11 = alloca [4 x i8], align 1
  %12 = alloca i32, align 4
  %13 = alloca i32, align 4
  %14 = alloca i8, align 1
  store ptr %0, ptr %4, align 8, !tbaa !32
  store i64 %1, ptr %5, align 8, !tbaa !31
  store ptr %2, ptr %6, align 8, !tbaa !3
  call void @llvm.lifetime.start.p0(i64 8, ptr %7) #14
  store i64 1, ptr %7, align 8, !tbaa !31
  call void @llvm.lifetime.start.p0(i64 8, ptr %8) #14
  %15 = load ptr, ptr %6, align 8, !tbaa !3
  %16 = getelementptr inbounds nuw %"struct.duckdb_brotli::BrotliDecoderStateStruct", ptr %15, i32 0, i32 41
  %17 = load i64, ptr %16, align 8, !tbaa !182
  store i64 %17, ptr %8, align 8, !tbaa !31
  call void @llvm.lifetime.start.p0(i64 8, ptr %9) #14
  %18 = load ptr, ptr %6, align 8, !tbaa !3
  %19 = getelementptr inbounds nuw %"struct.duckdb_brotli::BrotliDecoderStateStruct", ptr %18, i32 0, i32 42
  %20 = getelementptr inbounds [65 x i32], ptr %19, i64 0, i64 1
  store ptr %20, ptr %9, align 8, !tbaa !171
  call void @llvm.lifetime.start.p0(i64 8, ptr %10) #14
  %21 = load ptr, ptr %9, align 8, !tbaa !171
  store ptr %21, ptr %10, align 8, !tbaa !32
  call void @llvm.lifetime.start.p0(i64 4, ptr %11) #14
  call void @llvm.memcpy.p0.p0.i64(ptr align 1 %11, ptr align 1 @__const._ZN13duckdb_brotliL27InverseMoveToFrontTransformEPhmPNS_24BrotliDecoderStateStructE.b0123, i64 4, i1 false)
  call void @llvm.lifetime.start.p0(i64 4, ptr %12) #14
  call void @llvm.memcpy.p0.p0.i64(ptr align 4 %12, ptr align 1 %11, i64 4, i1 false)
  %22 = load i32, ptr %12, align 4, !tbaa !10
  %23 = load ptr, ptr %9, align 8, !tbaa !171
  %24 = getelementptr inbounds i32, ptr %23, i64 0
  store i32 %22, ptr %24, align 4, !tbaa !10
  br label %25

25:                                               ; preds = %34, %3
  %26 = load i32, ptr %12, align 4, !tbaa !10
  %27 = add i32 %26, 67372036
  store i32 %27, ptr %12, align 4, !tbaa !10
  %28 = load i32, ptr %12, align 4, !tbaa !10
  %29 = load ptr, ptr %9, align 8, !tbaa !171
  %30 = load i64, ptr %7, align 8, !tbaa !31
  %31 = getelementptr inbounds nuw i32, ptr %29, i64 %30
  store i32 %28, ptr %31, align 4, !tbaa !10
  %32 = load i64, ptr %7, align 8, !tbaa !31
  %33 = add i64 %32, 1
  store i64 %33, ptr %7, align 8, !tbaa !31
  br label %34

34:                                               ; preds = %25
  %35 = load i64, ptr %7, align 8, !tbaa !31
  %36 = load i64, ptr %8, align 8, !tbaa !31
  %37 = icmp ule i64 %35, %36
  br i1 %37, label %25, label %38, !llvm.loop !183

38:                                               ; preds = %34
  store i64 0, ptr %8, align 8, !tbaa !31
  store i64 0, ptr %7, align 8, !tbaa !31
  br label %39

39:                                               ; preds = %85, %38
  %40 = load i64, ptr %7, align 8, !tbaa !31
  %41 = load i64, ptr %5, align 8, !tbaa !31
  %42 = icmp ult i64 %40, %41
  br i1 %42, label %43, label %88

43:                                               ; preds = %39
  call void @llvm.lifetime.start.p0(i64 4, ptr %13) #14
  %44 = load ptr, ptr %4, align 8, !tbaa !32
  %45 = load i64, ptr %7, align 8, !tbaa !31
  %46 = getelementptr inbounds nuw i8, ptr %44, i64 %45
  %47 = load i8, ptr %46, align 1, !tbaa !65
  %48 = zext i8 %47 to i32
  store i32 %48, ptr %13, align 4, !tbaa !10
  call void @llvm.lifetime.start.p0(i64 1, ptr %14) #14
  %49 = load ptr, ptr %10, align 8, !tbaa !32
  %50 = load i32, ptr %13, align 4, !tbaa !10
  %51 = sext i32 %50 to i64
  %52 = getelementptr inbounds i8, ptr %49, i64 %51
  %53 = load i8, ptr %52, align 1, !tbaa !65
  store i8 %53, ptr %14, align 1, !tbaa !65
  %54 = load ptr, ptr %4, align 8, !tbaa !32
  %55 = load i64, ptr %7, align 8, !tbaa !31
  %56 = getelementptr inbounds nuw i8, ptr %54, i64 %55
  %57 = load i8, ptr %56, align 1, !tbaa !65
  %58 = zext i8 %57 to i64
  %59 = load i64, ptr %8, align 8, !tbaa !31
  %60 = or i64 %59, %58
  store i64 %60, ptr %8, align 8, !tbaa !31
  %61 = load i8, ptr %14, align 1, !tbaa !65
  %62 = load ptr, ptr %4, align 8, !tbaa !32
  %63 = load i64, ptr %7, align 8, !tbaa !31
  %64 = getelementptr inbounds nuw i8, ptr %62, i64 %63
  store i8 %61, ptr %64, align 1, !tbaa !65
  %65 = load i8, ptr %14, align 1, !tbaa !65
  %66 = load ptr, ptr %10, align 8, !tbaa !32
  %67 = getelementptr inbounds i8, ptr %66, i64 -1
  store i8 %65, ptr %67, align 1, !tbaa !65
  br label %68

68:                                               ; preds = %81, %43
  %69 = load i32, ptr %13, align 4, !tbaa !10
  %70 = add nsw i32 %69, -1
  store i32 %70, ptr %13, align 4, !tbaa !10
  %71 = load ptr, ptr %10, align 8, !tbaa !32
  %72 = load i32, ptr %13, align 4, !tbaa !10
  %73 = sext i32 %72 to i64
  %74 = getelementptr inbounds i8, ptr %71, i64 %73
  %75 = load i8, ptr %74, align 1, !tbaa !65
  %76 = load ptr, ptr %10, align 8, !tbaa !32
  %77 = load i32, ptr %13, align 4, !tbaa !10
  %78 = add nsw i32 %77, 1
  %79 = sext i32 %78 to i64
  %80 = getelementptr inbounds i8, ptr %76, i64 %79
  store i8 %75, ptr %80, align 1, !tbaa !65
  br label %81

81:                                               ; preds = %68
  %82 = load i32, ptr %13, align 4, !tbaa !10
  %83 = icmp sge i32 %82, 0
  br i1 %83, label %68, label %84, !llvm.loop !184

84:                                               ; preds = %81
  call void @llvm.lifetime.end.p0(i64 1, ptr %14) #14
  call void @llvm.lifetime.end.p0(i64 4, ptr %13) #14
  br label %85

85:                                               ; preds = %84
  %86 = load i64, ptr %7, align 8, !tbaa !31
  %87 = add i64 %86, 1
  store i64 %87, ptr %7, align 8, !tbaa !31
  br label %39, !llvm.loop !185

88:                                               ; preds = %39
  %89 = load i64, ptr %8, align 8, !tbaa !31
  %90 = lshr i64 %89, 2
  %91 = load ptr, ptr %6, align 8, !tbaa !3
  %92 = getelementptr inbounds nuw %"struct.duckdb_brotli::BrotliDecoderStateStruct", ptr %91, i32 0, i32 41
  store i64 %90, ptr %92, align 8, !tbaa !182
  call void @llvm.lifetime.end.p0(i64 4, ptr %12) #14
  call void @llvm.lifetime.end.p0(i64 4, ptr %11) #14
  call void @llvm.lifetime.end.p0(i64 8, ptr %10) #14
  call void @llvm.lifetime.end.p0(i64 8, ptr %9) #14
  call void @llvm.lifetime.end.p0(i64 8, ptr %8) #14
  call void @llvm.lifetime.end.p0(i64 8, ptr %7) #14
  ret void
}